; Function Attrs: mustprogress nounwind uwtable
define void @_ZN17PreferencesDialogD2Ev(ptr noundef nonnull align 8 dereferenceable(248) %0) unnamed_addr #3 align 2 personality ptr @__gxx_personality_v0 {
  store ptr getelementptr inbounds ({ [59 x ptr], [10 x ptr] }, ptr @_ZTV17PreferencesDialog, i64 0, i32 0, i64 2), ptr %0, align 8
  %2 = getelementptr inbounds i8, ptr %0, i64 16
  store ptr getelementptr inbounds ({ [59 x ptr], [10 x ptr] }, ptr @_ZTV17PreferencesDialog, i64 0, i32 1, i64 2), ptr %2, align 8
  %3 = getelementptr inbounds i8, ptr %0, i64 64
  %4 = load ptr, ptr %3, align 8
  %5 = icmp eq ptr %4, null
  br i1 %5, label %7, label %6

6:                                                ; preds = %1
  tail call void @_ZdlPv(ptr noundef nonnull %4) #19
  br label %7

7:                                                ; preds = %6, %1
  %8 = getelementptr inbounds i8, ptr %0, i64 216
  %9 = load ptr, ptr %8, align 8
  %10 = icmp eq ptr %9, null
  br i1 %10, label %15, label %11

11:                                               ; preds = %7
  %12 = load ptr, ptr %9, align 8
  %13 = getelementptr inbounds i8, ptr %12, i64 32
  %14 = load ptr, ptr %13, align 8
  tail call void %14(ptr noundef nonnull align 8 dereferenceable(16) %9) #18
  br label %15

15:                                               ; preds = %11, %7
  %16 = invoke i32 @prefs_modules_foreach_submodules(ptr noundef null, ptr noundef nonnull @_ZL24module_prefs_clean_stashP11pref_modulePv, ptr noundef null)
          to label %17 unwind label %38

17:                                               ; preds = %15
  %18 = getelementptr inbounds i8, ptr %0, i64 224
  %19 = load ptr, ptr %18, align 8
  %.not.i.i.i = icmp eq ptr %19, null
  br i1 %.not.i.i.i, label %_ZN7QStringD2Ev.exit, label %_ZN17QArrayDataPointerIDsE5derefEv.exit.i.i

_ZN17QArrayDataPointerIDsE5derefEv.exit.i.i:      ; preds = %17
  %20 = atomicrmw sub ptr %19, i32 1 seq_cst, align 4
  %.not.i.i = icmp eq i32 %20, 1
  br i1 %.not.i.i, label %21, label %_ZN7QStringD2Ev.exit

21:                                               ; preds = %_ZN17QArrayDataPointerIDsE5derefEv.exit.i.i
  %22 = load ptr, ptr %18, align 8
  tail call void @_ZN10QArrayData10deallocateEPS_xx(ptr noundef %22, i64 noundef 2, i64 noundef 8) #18
  br label %_ZN7QStringD2Ev.exit

_ZN7QStringD2Ev.exit:                             ; preds = %17, %_ZN17QArrayDataPointerIDsE5derefEv.exit.i.i, %21
  %23 = getelementptr inbounds i8, ptr %0, i64 168
  store ptr getelementptr inbounds ({ [59 x ptr] }, ptr @_ZTV16ModulePrefsModel, i64 0, i32 0, i64 2), ptr %23, align 8
  %24 = getelementptr inbounds i8, ptr %0, i64 184
  %25 = load ptr, ptr %24, align 8
  %.not.i.i.i.i = icmp eq ptr %25, null
  br i1 %.not.i.i.i.i, label %_ZN16ModulePrefsModelD2Ev.exit, label %_ZN17QArrayDataPointerIDsE5derefEv.exit.i.i.i

_ZN17QArrayDataPointerIDsE5derefEv.exit.i.i.i:    ; preds = %_ZN7QStringD2Ev.exit
  %26 = atomicrmw sub ptr %25, i32 1 seq_cst, align 4
  %.not.i.i.i2 = icmp eq i32 %26, 1
  br i1 %.not.i.i.i2, label %27, label %_ZN16ModulePrefsModelD2Ev.exit

27:                                               ; preds = %_ZN17QArrayDataPointerIDsE5derefEv.exit.i.i.i
  %28 = load ptr, ptr %24, align 8
  tail call void @_ZN10QArrayData10deallocateEPS_xx(ptr noundef %28, i64 noundef 2, i64 noundef 8) #18
  br label %_ZN16ModulePrefsModelD2Ev.exit

_ZN16ModulePrefsModelD2Ev.exit:                   ; preds = %_ZN7QStringD2Ev.exit, %_ZN17QArrayDataPointerIDsE5derefEv.exit.i.i.i, %27
  tail call void @_ZN21QSortFilterProxyModelD2Ev(ptr noundef nonnull align 8 dereferenceable(16) %23) #18
  %29 = getelementptr inbounds i8, ptr %0, i64 152
  tail call void @_ZN19QStyledItemDelegateD2Ev(ptr noundef nonnull align 8 dereferenceable(16) %29) #18
  %30 = getelementptr inbounds i8, ptr %0, i64 104
  store ptr getelementptr inbounds ({ [59 x ptr] }, ptr @_ZTV18AdvancedPrefsModel, i64 0, i32 0, i64 2), ptr %30, align 8
  %31 = getelementptr inbounds i8, ptr %0, i64 120
  %32 = load ptr, ptr %31, align 8
  %.not.i.i.i.i3 = icmp eq ptr %32, null
  br i1 %.not.i.i.i.i3, label %_ZN18AdvancedPrefsModelD2Ev.exit, label %_ZN17QArrayDataPointerIDsE5derefEv.exit.i.i.i4

_ZN17QArrayDataPointerIDsE5derefEv.exit.i.i.i4:   ; preds = %_ZN16ModulePrefsModelD2Ev.exit
  %33 = atomicrmw sub ptr %32, i32 1 seq_cst, align 4
  %.not.i.i.i5 = icmp eq i32 %33, 1
  br i1 %.not.i.i.i5, label %34, label %_ZN18AdvancedPrefsModelD2Ev.exit

34:                                               ; preds = %_ZN17QArrayDataPointerIDsE5derefEv.exit.i.i.i4
  %35 = load ptr, ptr %31, align 8
  tail call void @_ZN10QArrayData10deallocateEPS_xx(ptr noundef %35, i64 noundef 2, i64 noundef 8) #18
  br label %_ZN18AdvancedPrefsModelD2Ev.exit

_ZN18AdvancedPrefsModelD2Ev.exit:                 ; preds = %_ZN16ModulePrefsModelD2Ev.exit, %_ZN17QArrayDataPointerIDsE5derefEv.exit.i.i.i4, %34
  tail call void @_ZN21QSortFilterProxyModelD2Ev(ptr noundef nonnull align 8 dereferenceable(16) %30) #18
  %36 = getelementptr inbounds i8, ptr %0, i64 80
  tail call void @_ZN10PrefsModelD1Ev(ptr noundef nonnull align 8 dereferenceable(24) %36) #18
  %37 = getelementptr inbounds i8, ptr %0, i64 72
  tail call void @_ZN5QHashI7QStringP7QWidgetED2Ev(ptr noundef nonnull align 8 dereferenceable(8) %37) #18
  tail call void @_ZN19GeometryStateDialogD2Ev(ptr noundef nonnull align 8 dereferenceable(64) %0) #18
  ret void

38:                                               ; preds = %15
  %39 = landingpad { ptr, i32 }
          catch ptr null
  %40 = extractvalue { ptr, i32 } %39, 0
  tail call void @__clang_call_terminate(ptr %40) #20
  unreachable
}